; Function Attrs: mustprogress nounwind uwtable
define hidden void @_ZN14MacroAssembler9evmovdquqE11XMMRegister14AddressLiterali8Register(ptr noundef nonnull align 8 dereferenceable(40) %0, i32 %1, ptr noundef %2, i32 noundef %3, i32 %4) local_unnamed_addr #0 align 2 {
  %6 = alloca %class.AddressLiteral, align 8
  %7 = alloca %class.Address, align 8
  %8 = alloca %class.AddressLiteral, align 8
  %9 = alloca %class.AddressLiteral, align 8
  %10 = alloca %class.Address, align 8
  %11 = load ptr, ptr %2, align 8
  %12 = getelementptr inbounds i8, ptr %11, i64 16
  %13 = load ptr, ptr %12, align 8
  call void %13(ptr noundef nonnull align 8 dereferenceable(20) %2, ptr noundef nonnull align 8 dereferenceable(40) %6) #18
  %14 = getelementptr inbounds i8, ptr %6, i64 40
  %15 = getelementptr inbounds i8, ptr %2, i64 40
  call void @llvm.memcpy.p0.p0.i64(ptr noundef nonnull align 8 dereferenceable(16) %14, ptr noundef nonnull align 8 dereferenceable(16) %15, i64 16, i1 false)
  %16 = call noundef zeroext i1 @_ZN9Assembler9reachableE14AddressLiteral(ptr noundef nonnull align 8 dereferenceable(40) %0, ptr noundef nonnull %6) #18
  %17 = load ptr, ptr %2, align 8
  %18 = getelementptr inbounds i8, ptr %17, i64 16
  %19 = load ptr, ptr %18, align 8
  br i1 %16, label %20, label %34

20:                                               ; preds = %5
  call void %19(ptr noundef nonnull align 8 dereferenceable(20) %2, ptr noundef nonnull align 8 dereferenceable(40) %8) #18
  %21 = getelementptr inbounds i8, ptr %8, i64 40
  call void @llvm.memcpy.p0.p0.i64(ptr noundef nonnull align 8 dereferenceable(16) %21, ptr noundef nonnull align 8 dereferenceable(16) %15, i64 16, i1 false)
  %22 = getelementptr inbounds i8, ptr %8, i64 48
  %23 = load ptr, ptr %22, align 8, !noalias !196
  %24 = getelementptr inbounds i8, ptr %0, i64 8
  %25 = load ptr, ptr %24, align 8, !noalias !196
  %26 = getelementptr inbounds i8, ptr %25, i64 16
  %27 = load ptr, ptr %26, align 8, !noalias !196
  %28 = ptrtoint ptr %23 to i64
  %29 = ptrtoint ptr %27 to i64
  %30 = sub i64 %28, %29
  %31 = trunc i64 %30 to i32
  %32 = getelementptr inbounds i8, ptr %8, i64 16
  %33 = load i32, ptr %32, align 8, !noalias !196
  call void @_ZN7AddressC1EiPhN9relocInfo9relocTypeE(ptr noundef nonnull align 8 dereferenceable(64) %7, i32 noundef %31, ptr noundef %23, i32 noundef %33) #18
  br label %44

34:                                               ; preds = %5
  call void %19(ptr noundef nonnull align 8 dereferenceable(20) %2, ptr noundef nonnull align 8 dereferenceable(40) %9) #18
  %35 = getelementptr inbounds i8, ptr %9, i64 40
  call void @llvm.memcpy.p0.p0.i64(ptr noundef nonnull align 8 dereferenceable(16) %35, ptr noundef nonnull align 8 dereferenceable(16) %15, i64 16, i1 false)
  %36 = getelementptr inbounds i8, ptr %9, i64 48
  %37 = load ptr, ptr %36, align 8
  %38 = ptrtoint ptr %37 to i64
  call void @_ZN9Assembler13mov_literal64E8RegisterlRK16RelocationHolder(ptr noundef nonnull align 8 dereferenceable(40) %0, i32 %4, i64 noundef %38, ptr noundef nonnull align 8 dereferenceable(40) %9) #18
  store i32 %4, ptr %10, align 8
  %39 = getelementptr inbounds i8, ptr %10, i64 4
  store <4 x i32> <i32 -1, i32 -1, i32 -1, i32 0>, ptr %39, align 4
  %40 = getelementptr inbounds i8, ptr %10, i64 20
  store i8 0, ptr %40, align 4
  %41 = getelementptr inbounds i8, ptr %10, i64 24
  store ptr getelementptr inbounds inrange(-16, 72) (i8, ptr @_ZTV10Relocation, i64 16), ptr %41, align 8
  %42 = getelementptr inbounds i8, ptr %10, i64 32
  store ptr null, ptr %42, align 8
  %43 = getelementptr inbounds i8, ptr %10, i64 40
  store i32 0, ptr %43, align 8
  br label %44

44:                                               ; preds = %34, %20
  %.sink = phi ptr [ %10, %34 ], [ %7, %20 ]
  call void @_ZN9Assembler9evmovdquqE11XMMRegister7Addressi(ptr noundef nonnull align 8 dereferenceable(40) %0, i32 %1, ptr noundef nonnull %.sink, i32 noundef %3) #18
  ret void
}